target datalayout = "e-m:e-p270:32:32-p271:32:32-p272:64:64-i64:64-i128:128-f80:128-n8:16:32:64-S128"
target triple = "x86_64-pc-linux-gnu"

%struct.pointf_s = type { double, double }
%struct.boxf = type { %struct.pointf_s, %struct.pointf_s }
%struct.textlabel_t = type { ptr, ptr, ptr, i32, double, %struct.pointf_s, %struct.pointf_s, %struct.pointf_s, %union.anon.0, i8, i8, i8 }
%union.anon.0 = type { %struct.anon.1 }
%struct.anon.1 = type { ptr, i64 }
%struct.field_t = type { %struct.pointf_s, %struct.boxf, i32, ptr, ptr, ptr, i8, i8 }

; Function Attrs: nounwind uwtable
define internal void @resize_reclbl(ptr noundef %0, double %1, double %2, i1 noundef zeroext %3) #0 {
  %5 = alloca %struct.pointf_s, align 8
  %6 = alloca ptr, align 8
  %7 = alloca i8, align 1
  %8 = alloca i32, align 4
  %9 = alloca i32, align 4
  %10 = alloca double, align 8
  %11 = alloca %struct.pointf_s, align 8
  %12 = alloca %struct.pointf_s, align 8
  %13 = alloca ptr, align 8
  %14 = alloca %struct.pointf_s, align 8
  %15 = alloca %struct.pointf_s, align 8
  %16 = getelementptr inbounds nuw { double, double }, ptr %5, i32 0, i32 0
  store double %1, ptr %16, align 8
  %17 = getelementptr inbounds nuw { double, double }, ptr %5, i32 0, i32 1
  store double %2, ptr %17, align 8
  store ptr %0, ptr %6, align 8, !tbaa !120
  %18 = zext i1 %3 to i8
  store i8 %18, ptr %7, align 1, !tbaa !28
  call void @llvm.lifetime.start.p0(i64 4, ptr %8) #13
  call void @llvm.lifetime.start.p0(i64 4, ptr %9) #13
  call void @llvm.lifetime.start.p0(i64 8, ptr %10) #13
  call void @llvm.lifetime.start.p0(i64 16, ptr %11) #13
  call void @llvm.lifetime.start.p0(i64 16, ptr %12) #13
  call void @llvm.lifetime.start.p0(i64 8, ptr %13) #13
  %19 = getelementptr inbounds nuw %struct.pointf_s, ptr %5, i32 0, i32 0
  %20 = load double, ptr %19, align 8, !tbaa !21
  %21 = load ptr, ptr %6, align 8, !tbaa !120
  %22 = getelementptr inbounds nuw %struct.field_t, ptr %21, i32 0, i32 0
  %23 = getelementptr inbounds nuw %struct.pointf_s, ptr %22, i32 0, i32 0
  %24 = load double, ptr %23, align 8, !tbaa !122
  %25 = fsub double %20, %24
  %26 = getelementptr inbounds nuw %struct.pointf_s, ptr %11, i32 0, i32 0
  store double %25, ptr %26, align 8, !tbaa !21
  %27 = getelementptr inbounds nuw %struct.pointf_s, ptr %5, i32 0, i32 1
  %28 = load double, ptr %27, align 8, !tbaa !23
  %29 = load ptr, ptr %6, align 8, !tbaa !120
  %30 = getelementptr inbounds nuw %struct.field_t, ptr %29, i32 0, i32 0
  %31 = getelementptr inbounds nuw %struct.pointf_s, ptr %30, i32 0, i32 1
  %32 = load double, ptr %31, align 8, !tbaa !125
  %33 = fsub double %28, %32
  %34 = getelementptr inbounds nuw %struct.pointf_s, ptr %11, i32 0, i32 1
  store double %33, ptr %34, align 8, !tbaa !23
  %35 = load ptr, ptr %6, align 8, !tbaa !120
  %36 = getelementptr inbounds nuw %struct.field_t, ptr %35, i32 0, i32 0
  call void @llvm.memcpy.p0.p0.i64(ptr align 8 %36, ptr align 8 %5, i64 16, i1 false), !tbaa.struct !16
  %37 = load ptr, ptr %6, align 8, !tbaa !120
  %38 = getelementptr inbounds nuw %struct.field_t, ptr %37, i32 0, i32 3
  %39 = load ptr, ptr %38, align 8, !tbaa !184
  %40 = icmp ne ptr %39, null
  br i1 %40, label %41, label %63

41:                                               ; preds = %4
  %42 = load i8, ptr %7, align 1, !tbaa !28, !range !31, !noundef !32
  %43 = trunc i8 %42 to i1
  br i1 %43, label %63, label %44

44:                                               ; preds = %41
  %45 = getelementptr inbounds nuw %struct.pointf_s, ptr %11, i32 0, i32 0
  %46 = load double, ptr %45, align 8, !tbaa !21
  %47 = load ptr, ptr %6, align 8, !tbaa !120
  %48 = getelementptr inbounds nuw %struct.field_t, ptr %47, i32 0, i32 3
  %49 = load ptr, ptr %48, align 8, !tbaa !184
  %50 = getelementptr inbounds nuw %struct.textlabel_t, ptr %49, i32 0, i32 6
  %51 = getelementptr inbounds nuw %struct.pointf_s, ptr %50, i32 0, i32 0
  %52 = load double, ptr %51, align 8, !tbaa !104
  %53 = fadd double %52, %46
  store double %53, ptr %51, align 8, !tbaa !104
  %54 = getelementptr inbounds nuw %struct.pointf_s, ptr %11, i32 0, i32 1
  %55 = load double, ptr %54, align 8, !tbaa !23
  %56 = load ptr, ptr %6, align 8, !tbaa !120
  %57 = getelementptr inbounds nuw %struct.field_t, ptr %56, i32 0, i32 3
  %58 = load ptr, ptr %57, align 8, !tbaa !184
  %59 = getelementptr inbounds nuw %struct.textlabel_t, ptr %58, i32 0, i32 6
  %60 = getelementptr inbounds nuw %struct.pointf_s, ptr %59, i32 0, i32 1
  %61 = load double, ptr %60, align 8, !tbaa !105
  %62 = fadd double %61, %55
  store double %62, ptr %60, align 8, !tbaa !105
  br label %63

63:                                               ; preds = %44, %41, %4
  %64 = load ptr, ptr %6, align 8, !tbaa !120
  %65 = getelementptr inbounds nuw %struct.field_t, ptr %64, i32 0, i32 2
  %66 = load i32, ptr %65, align 8, !tbaa !185
  %67 = icmp ne i32 %66, 0
  br i1 %67, label %68, label %156

68:                                               ; preds = %63
  %69 = load ptr, ptr %6, align 8, !tbaa !120
  %70 = getelementptr inbounds nuw %struct.field_t, ptr %69, i32 0, i32 6
  %71 = load i8, ptr %70, align 8, !tbaa !177
  %72 = icmp ne i8 %71, 0
  br i1 %72, label %73, label %81

73:                                               ; preds = %68
  %74 = getelementptr inbounds nuw %struct.pointf_s, ptr %11, i32 0, i32 0
  %75 = load double, ptr %74, align 8, !tbaa !21
  %76 = load ptr, ptr %6, align 8, !tbaa !120
  %77 = getelementptr inbounds nuw %struct.field_t, ptr %76, i32 0, i32 2
  %78 = load i32, ptr %77, align 8, !tbaa !185
  %79 = sitofp i32 %78 to double
  %80 = fdiv double %75, %79
  store double %80, ptr %10, align 8, !tbaa !17
  br label %89

81:                                               ; preds = %68
  %82 = getelementptr inbounds nuw %struct.pointf_s, ptr %11, i32 0, i32 1
  %83 = load double, ptr %82, align 8, !tbaa !23
  %84 = load ptr, ptr %6, align 8, !tbaa !120
  %85 = getelementptr inbounds nuw %struct.field_t, ptr %84, i32 0, i32 2
  %86 = load i32, ptr %85, align 8, !tbaa !185
  %87 = sitofp i32 %86 to double
  %88 = fdiv double %83, %87
  store double %88, ptr %10, align 8, !tbaa !17
  br label %89

89:                                               ; preds = %81, %73
  store i32 0, ptr %8, align 4, !tbaa !12
  br label %90

90:                                               ; preds = %152, %89
  %91 = load i32, ptr %8, align 4, !tbaa !12
  %92 = load ptr, ptr %6, align 8, !tbaa !120
  %93 = getelementptr inbounds nuw %struct.field_t, ptr %92, i32 0, i32 2
  %94 = load i32, ptr %93, align 8, !tbaa !185
  %95 = icmp slt i32 %91, %94
  br i1 %95, label %96, label %155

96:                                               ; preds = %90
  %97 = load ptr, ptr %6, align 8, !tbaa !120
  %98 = getelementptr inbounds nuw %struct.field_t, ptr %97, i32 0, i32 4
  %99 = load ptr, ptr %98, align 8, !tbaa !176
  %100 = load i32, ptr %8, align 4, !tbaa !12
  %101 = sext i32 %100 to i64
  %102 = getelementptr inbounds ptr, ptr %99, i64 %101
  %103 = load ptr, ptr %102, align 8, !tbaa !120
  store ptr %103, ptr %13, align 8, !tbaa !120
  %104 = load i32, ptr %8, align 4, !tbaa !12
  %105 = add nsw i32 %104, 1
  %106 = sitofp i32 %105 to double
  %107 = load double, ptr %10, align 8, !tbaa !17
  %108 = fmul double %106, %107
  %109 = fptosi double %108 to i32
  %110 = load i32, ptr %8, align 4, !tbaa !12
  %111 = sitofp i32 %110 to double
  %112 = load double, ptr %10, align 8, !tbaa !17
  %113 = fmul double %111, %112
  %114 = fptosi double %113 to i32
  %115 = sub nsw i32 %109, %114
  store i32 %115, ptr %9, align 4, !tbaa !12
  %116 = load ptr, ptr %6, align 8, !tbaa !120
  %117 = getelementptr inbounds nuw %struct.field_t, ptr %116, i32 0, i32 6
  %118 = load i8, ptr %117, align 8, !tbaa !177
  %119 = icmp ne i8 %118, 0
  br i1 %119, label %120, label %132

120:                                              ; preds = %96
  %121 = getelementptr inbounds nuw %struct.pointf_s, ptr %14, i32 0, i32 0
  %122 = load ptr, ptr %13, align 8, !tbaa !120
  %123 = getelementptr inbounds nuw %struct.field_t, ptr %122, i32 0, i32 0
  %124 = getelementptr inbounds nuw %struct.pointf_s, ptr %123, i32 0, i32 0
  %125 = load double, ptr %124, align 8, !tbaa !122
  %126 = load i32, ptr %9, align 4, !tbaa !12
  %127 = sitofp i32 %126 to double
  %128 = fadd double %125, %127
  store double %128, ptr %121, align 8, !tbaa !21
  %129 = getelementptr inbounds nuw %struct.pointf_s, ptr %14, i32 0, i32 1
  %130 = getelementptr inbounds nuw %struct.pointf_s, ptr %5, i32 0, i32 1
  %131 = load double, ptr %130, align 8, !tbaa !23
  store double %131, ptr %129, align 8, !tbaa !23
  call void @llvm.memcpy.p0.p0.i64(ptr align 8 %12, ptr align 8 %14, i64 16, i1 false), !tbaa.struct !16
  br label %144

132:                                              ; preds = %96
  %133 = getelementptr inbounds nuw %struct.pointf_s, ptr %15, i32 0, i32 0
  %134 = getelementptr inbounds nuw %struct.pointf_s, ptr %5, i32 0, i32 0
  %135 = load double, ptr %134, align 8, !tbaa !21
  store double %135, ptr %133, align 8, !tbaa !21
  %136 = getelementptr inbounds nuw %struct.pointf_s, ptr %15, i32 0, i32 1
  %137 = load ptr, ptr %13, align 8, !tbaa !120
  %138 = getelementptr inbounds nuw %struct.field_t, ptr %137, i32 0, i32 0
  %139 = getelementptr inbounds nuw %struct.pointf_s, ptr %138, i32 0, i32 1
  %140 = load double, ptr %139, align 8, !tbaa !125
  %141 = load i32, ptr %9, align 4, !tbaa !12
  %142 = sitofp i32 %141 to double
  %143 = fadd double %140, %142
  store double %143, ptr %136, align 8, !tbaa !23
  call void @llvm.memcpy.p0.p0.i64(ptr align 8 %12, ptr align 8 %15, i64 16, i1 false), !tbaa.struct !16
  br label %144

144:                                              ; preds = %132, %120
  %145 = load ptr, ptr %13, align 8, !tbaa !120
  %146 = load i8, ptr %7, align 1, !tbaa !28, !range !31, !noundef !32
  %147 = trunc i8 %146 to i1
  %148 = getelementptr inbounds nuw { double, double }, ptr %12, i32 0, i32 0
  %149 = load double, ptr %148, align 8
  %150 = getelementptr inbounds nuw { double, double }, ptr %12, i32 0, i32 1
  %151 = load double, ptr %150, align 8
  call void @resize_reclbl(ptr noundef %145, double %149, double %151, i1 noundef zeroext %147)
  br label %152

152:                                              ; preds = %144
  %153 = load i32, ptr %8, align 4, !tbaa !12
  %154 = add nsw i32 %153, 1
  store i32 %154, ptr %8, align 4, !tbaa !12
  br label %90, !llvm.loop !188

155:                                              ; preds = %90
  br label %156

156:                                              ; preds = %155, %63
  call void @llvm.lifetime.end.p0(i64 8, ptr %13) #13
  call void @llvm.lifetime.end.p0(i64 16, ptr %12) #13
  call void @llvm.lifetime.end.p0(i64 16, ptr %11) #13
  call void @llvm.lifetime.end.p0(i64 8, ptr %10) #13
  call void @llvm.lifetime.end.p0(i64 4, ptr %9) #13
  call void @llvm.lifetime.end.p0(i64 4, ptr %8) #13
  ret void
}