; Function Attrs: nofree nosync nounwind memory(readwrite, inaccessiblemem: none) uwtable
define internal fastcc void @resize_reclbl(ptr noundef captures(none) %0, double %1, double %2, i1 noundef zeroext %3) unnamed_addr #18 {
  %5 = load double, ptr %0, align 8, !tbaa !104
  %6 = fsub double %1, %5
  %7 = getelementptr inbounds nuw i8, ptr %0, i64 8
  %8 = load double, ptr %7, align 8, !tbaa !107
  %9 = fsub double %2, %8
  store double %1, ptr %0, align 8, !tbaa !4
  store double %2, ptr %7, align 8, !tbaa !4
  %10 = getelementptr inbounds nuw i8, ptr %0, i64 56
  %11 = load ptr, ptr %10, align 8, !tbaa !162
  %.not = icmp eq ptr %11, null
  %brmerge = or i1 %3, %.not
  br i1 %brmerge, label %19, label %12

12:                                               ; preds = %4
  %13 = getelementptr inbounds nuw i8, ptr %11, i64 56
  %14 = load double, ptr %13, align 8, !tbaa !87
  %15 = fadd double %6, %14
  store double %15, ptr %13, align 8, !tbaa !87
  %16 = getelementptr inbounds nuw i8, ptr %11, i64 64
  %17 = load double, ptr %16, align 8, !tbaa !88
  %18 = fadd double %9, %17
  store double %18, ptr %16, align 8, !tbaa !88
  br label %19

19:                                               ; preds = %4, %12
  %20 = getelementptr inbounds nuw i8, ptr %0, i64 48
  %21 = load i32, ptr %20, align 8, !tbaa !163
  %.not39 = icmp eq i32 %21, 0
  br i1 %.not39, label %.loopexit, label %22

22:                                               ; preds = %19
  %23 = getelementptr inbounds nuw i8, ptr %0, i64 80
  %24 = load i8, ptr %23, align 8, !tbaa !153
  %.not40 = icmp eq i8 %24, 0
  %25 = sitofp i32 %21 to double
  %.036.v = select i1 %.not40, double %9, double %6
  %.036 = fdiv double %.036.v, %25
  %26 = icmp sgt i32 %21, 0
  br i1 %26, label %.lr.ph, label %.loopexit

.lr.ph:                                           ; preds = %22
  %27 = getelementptr inbounds nuw i8, ptr %0, i64 64
  br label %28

28:                                               ; preds = %.lr.ph, %51
  %indvars.iv = phi i64 [ 0, %.lr.ph ], [ %indvars.iv.next, %51 ]
  %29 = load ptr, ptr %27, align 8, !tbaa !152
  %30 = getelementptr inbounds nuw ptr, ptr %29, i64 %indvars.iv
  %31 = load ptr, ptr %30, align 8, !tbaa !156
  %indvars.iv.next = add nuw nsw i64 %indvars.iv, 1
  %32 = trunc nuw nsw i64 %indvars.iv.next to i32
  %33 = uitofp nneg i32 %32 to double
  %34 = fmul double %.036, %33
  %35 = fptosi double %34 to i32
  %36 = trunc nuw nsw i64 %indvars.iv to i32
  %37 = uitofp nneg i32 %36 to double
  %38 = fmul double %.036, %37
  %39 = fptosi double %38 to i32
  %40 = sub nsw i32 %35, %39
  %41 = load i8, ptr %23, align 8, !tbaa !153
  %.not41 = icmp eq i8 %41, 0
  br i1 %.not41, label %46, label %42

42:                                               ; preds = %28
  %43 = load double, ptr %31, align 8, !tbaa !104
  %44 = sitofp i32 %40 to double
  %45 = fadd double %43, %44
  br label %51

46:                                               ; preds = %28
  %47 = getelementptr inbounds nuw i8, ptr %31, i64 8
  %48 = load double, ptr %47, align 8, !tbaa !107
  %49 = sitofp i32 %40 to double
  %50 = fadd double %48, %49
  br label %51

51:                                               ; preds = %46, %42
  %.sroa.05.0 = phi double [ %45, %42 ], [ %1, %46 ]
  %.sroa.5.0 = phi double [ %2, %42 ], [ %50, %46 ]
  tail call fastcc void @resize_reclbl(ptr noundef nonnull %31, double %.sroa.05.0, double %.sroa.5.0, i1 noundef zeroext %3)
  %52 = load i32, ptr %20, align 8, !tbaa !163
  %53 = sext i32 %52 to i64
  %54 = icmp slt i64 %indvars.iv.next, %53
  br i1 %54, label %28, label %.loopexit, !llvm.loop !166

.loopexit:                                        ; preds = %51, %22, %19
  ret void
}